target datalayout = "e-m:e-p270:32:32-p271:32:32-p272:64:64-i64:64-i128:128-f80:128-n8:16:32:64-S128"
target triple = "x86_64-pc-linux-gnu"

%"class.icu_77::UCharCharacterIterator" = type { %"class.icu_77::CharacterIterator", ptr }
%"class.icu_77::CharacterIterator" = type { %"class.icu_77::ForwardCharacterIterator", i32, i32, i32, i32 }
%"class.icu_77::ForwardCharacterIterator" = type { %"class.icu_77::UObject" }
%"class.icu_77::UObject" = type { ptr }

; Function Attrs: mustprogress nounwind uwtable
define noundef zeroext i16 @_ZN6icu_7722UCharCharacterIterator4nextEv(ptr noundef nonnull align 8 dereferenceable(32) %0) unnamed_addr #0 align 2 {
  %2 = alloca i16, align 2
  %3 = alloca ptr, align 8
  store ptr %0, ptr %3, align 8, !tbaa !3
  %4 = load ptr, ptr %3, align 8
  %5 = getelementptr inbounds nuw %"class.icu_77::CharacterIterator", ptr %4, i32 0, i32 2
  %6 = load i32, ptr %5, align 4, !tbaa !23
  %7 = add nsw i32 %6, 1
  %8 = getelementptr inbounds nuw %"class.icu_77::CharacterIterator", ptr %4, i32 0, i32 4
  %9 = load i32, ptr %8, align 4, !tbaa !25
  %10 = icmp slt i32 %7, %9
  br i1 %10, label %11, label %20

11:                                               ; preds = %1
  %12 = getelementptr inbounds nuw %"class.icu_77::UCharCharacterIterator", ptr %4, i32 0, i32 1
  %13 = load ptr, ptr %12, align 8, !tbaa !10
  %14 = getelementptr inbounds nuw %"class.icu_77::CharacterIterator", ptr %4, i32 0, i32 2
  %15 = load i32, ptr %14, align 4, !tbaa !23
  %16 = add nsw i32 %15, 1
  store i32 %16, ptr %14, align 4, !tbaa !23
  %17 = sext i32 %16 to i64
  %18 = getelementptr inbounds i16, ptr %13, i64 %17
  %19 = load i16, ptr %18, align 2, !tbaa !28
  store i16 %19, ptr %2, align 2
  br label %24

20:                                               ; preds = %1
  %21 = getelementptr inbounds nuw %"class.icu_77::CharacterIterator", ptr %4, i32 0, i32 4
  %22 = load i32, ptr %21, align 4, !tbaa !25
  %23 = getelementptr inbounds nuw %"class.icu_77::CharacterIterator", ptr %4, i32 0, i32 2
  store i32 %22, ptr %23, align 4, !tbaa !23
  store i16 -1, ptr %2, align 2
  br label %24

24:                                               ; preds = %20, %11
  %25 = load i16, ptr %2, align 2
  ret i16 %25
}