; Function Attrs: mustprogress nofree norecurse nosync nounwind willreturn memory(read, argmem: readwrite, inaccessiblemem: none) uwtable
define noundef zeroext i16 @_ZN6icu_7722UCharCharacterIterator4nextEv(ptr noundef nonnull align 8 captures(none) dereferenceable(32) %0) unnamed_addr #7 align 2 {
  %2 = getelementptr inbounds nuw i8, ptr %0, i64 12
  %3 = load i32, ptr %2, align 4, !tbaa !22
  %4 = add nsw i32 %3, 1
  %5 = getelementptr inbounds nuw i8, ptr %0, i64 20
  %6 = load i32, ptr %5, align 4, !tbaa !24
  %7 = icmp slt i32 %4, %6
  br i1 %7, label %8, label %14

8:                                                ; preds = %1
  %9 = getelementptr inbounds nuw i8, ptr %0, i64 24
  %10 = load ptr, ptr %9, align 8, !tbaa !6
  %11 = sext i32 %4 to i64
  %12 = getelementptr inbounds i16, ptr %10, i64 %11
  %13 = load i16, ptr %12, align 2, !tbaa !25
  br label %14

14:                                               ; preds = %1, %8
  %.sink = phi i32 [ %4, %8 ], [ %6, %1 ]
  %.0 = phi i16 [ %13, %8 ], [ -1, %1 ]
  store i32 %.sink, ptr %2, align 4, !tbaa !22
  ret i16 %.0
}